target datalayout = "e-m:e-p270:32:32-p271:32:32-p272:64:64-i64:64-i128:128-f80:128-n8:16:32:64-S128"
target triple = "x86_64-pc-linux-gnu"

; Function Attrs: nounwind uwtable
define double @ff_scalarproduct_double_c(ptr noundef %0, ptr noundef %1, i64 noundef %2) #0 {
  %4 = alloca ptr, align 8
  %5 = alloca ptr, align 8
  %6 = alloca i64, align 8
  %7 = alloca double, align 8
  %8 = alloca i64, align 8
  store ptr %0, ptr %4, align 8, !tbaa !4
  store ptr %1, ptr %5, align 8, !tbaa !4
  store i64 %2, ptr %6, align 8, !tbaa !9
  call void @llvm.lifetime.start.p0(i64 8, ptr %7) #5
  store double 0.000000e+00, ptr %7, align 8, !tbaa !11
  call void @llvm.lifetime.start.p0(i64 8, ptr %8) #5
  store i64 0, ptr %8, align 8, !tbaa !9
  br label %9

9:                                                ; preds = %25, %3
  %10 = load i64, ptr %8, align 8, !tbaa !9
  %11 = load i64, ptr %6, align 8, !tbaa !9
  %12 = icmp ult i64 %10, %11
  br i1 %12, label %14, label %13

13:                                               ; preds = %9
  call void @llvm.lifetime.end.p0(i64 8, ptr %8) #5
  br label %28

14:                                               ; preds = %9
  %15 = load ptr, ptr %4, align 8, !tbaa !4
  %16 = load i64, ptr %8, align 8, !tbaa !9
  %17 = getelementptr inbounds nuw double, ptr %15, i64 %16
  %18 = load double, ptr %17, align 8, !tbaa !11
  %19 = load ptr, ptr %5, align 8, !tbaa !4
  %20 = load i64, ptr %8, align 8, !tbaa !9
  %21 = getelementptr inbounds nuw double, ptr %19, i64 %20
  %22 = load double, ptr %21, align 8, !tbaa !11
  %23 = load double, ptr %7, align 8, !tbaa !11
  %24 = call nsz double @llvm.fmuladd.f64(double %18, double %22, double %23)
  store double %24, ptr %7, align 8, !tbaa !11
  br label %25

25:                                               ; preds = %14
  %26 = load i64, ptr %8, align 8, !tbaa !9
  %27 = add i64 %26, 1
  store i64 %27, ptr %8, align 8, !tbaa !9
  br label %9, !llvm.loop !13

28:                                               ; preds = %13
  %29 = load double, ptr %7, align 8, !tbaa !11
  call void @llvm.lifetime.end.p0(i64 8, ptr %7) #5
  ret double %29
}