; Function Attrs: nofree norecurse nosync nounwind memory(argmem: read) uwtable
define double @ff_scalarproduct_double_c(ptr noundef readonly captures(none) %0, ptr noundef readonly captures(none) %1, i64 noundef %2) #0 {
  %.not = icmp eq i64 %2, 0
  br i1 %.not, label %._crit_edge, label %.lr.ph

._crit_edge:                                      ; preds = %.lr.ph, %3
  %.08.lcssa = phi double [ 0.000000e+00, %3 ], [ %8, %.lr.ph ]
  ret double %.08.lcssa

.lr.ph:                                           ; preds = %3, %.lr.ph
  %.010 = phi i64 [ %9, %.lr.ph ], [ 0, %3 ]
  %.089 = phi double [ %8, %.lr.ph ], [ 0.000000e+00, %3 ]
  %4 = getelementptr inbounds nuw double, ptr %0, i64 %.010
  %5 = load double, ptr %4, align 8, !tbaa !4
  %6 = getelementptr inbounds nuw double, ptr %1, i64 %.010
  %7 = load double, ptr %6, align 8, !tbaa !4
  %8 = tail call nsz double @llvm.fmuladd.f64(double %5, double %7, double %.089)
  %9 = add nuw i64 %.010, 1
  %exitcond.not = icmp eq i64 %9, %2
  br i1 %exitcond.not, label %._crit_edge, label %.lr.ph, !llvm.loop !8
}